target datalayout = "e-m:e-p270:32:32-p271:32:32-p272:64:64-i64:64-i128:128-f80:128-n8:16:32:64-S128"
target triple = "x86_64-pc-linux-gnu"

%class.anon.52 = type { i8 }

@.str.33 = private unnamed_addr constant [4 x i8] c"sat\00", align 1
@.str.73 = private unnamed_addr constant [5 x i8] c"true\00", align 1
@.str.82 = private unnamed_addr constant [6 x i8] c"false\00", align 1
@.str.140 = private unnamed_addr constant [2 x i8] c"1\00", align 1
@.str.412 = private unnamed_addr constant [2 x i8] c"2\00", align 1
@.str.983 = private unnamed_addr constant [13 x i8] c"asymm_branch\00", align 1
@.str.984 = private unnamed_addr constant [21 x i8] c"asymmetric branching\00", align 1
@.str.985 = private unnamed_addr constant [20 x i8] c"asymm_branch.rounds\00", align 1
@.str.986 = private unnamed_addr constant [86 x i8] c"maximal number of rounds to run asymmetric branch simplifications if progress is made\00", align 1
@.str.987 = private unnamed_addr constant [19 x i8] c"asymm_branch.delay\00", align 1
@.str.988 = private unnamed_addr constant [88 x i8] c"number of simplification rounds to wait until invoking asymmetric branch simplification\00", align 1
@.str.989 = private unnamed_addr constant [21 x i8] c"asymm_branch.sampled\00", align 1
@.str.990 = private unnamed_addr constant [74 x i8] c"use sampling based asymmetric branching based on binary implication graph\00", align 1
@.str.991 = private unnamed_addr constant [19 x i8] c"asymm_branch.limit\00", align 1
@.str.992 = private unnamed_addr constant [71 x i8] c"approx. maximum number of literals visited during asymmetric branching\00", align 1
@.str.993 = private unnamed_addr constant [10 x i8] c"100000000\00", align 1
@.str.994 = private unnamed_addr constant [17 x i8] c"asymm_branch.all\00", align 1
@.str.995 = private unnamed_addr constant [48 x i8] c"asymmetric branching on all literals per clause\00", align 1

; Function Attrs: mustprogress uwtable
define linkonce_odr hidden void @_ZN23sat_asymm_branch_params20collect_param_descrsER12param_descrs(ptr noundef nonnull align 8 dereferenceable(8) %0) #4 comdat align 2 {
  %2 = alloca ptr, align 8
  store ptr %0, ptr %2, align 8, !tbaa !7
  %3 = load ptr, ptr %2, align 8, !tbaa !7
  call void @_ZN12param_descrs6insertEPKc12cmd_arg_kindS1_S1_S1_(ptr noundef nonnull align 8 dereferenceable(8) %3, ptr noundef @.str.983, i32 noundef 1, ptr noundef @.str.984, ptr noundef @.str.73, ptr noundef @.str.33)
  %4 = load ptr, ptr %2, align 8, !tbaa !7
  call void @_ZN12param_descrs6insertEPKc12cmd_arg_kindS1_S1_S1_(ptr noundef nonnull align 8 dereferenceable(8) %4, ptr noundef @.str.985, i32 noundef 0, ptr noundef @.str.986, ptr noundef @.str.412, ptr noundef @.str.33)
  %5 = load ptr, ptr %2, align 8, !tbaa !7
  call void @_ZN12param_descrs6insertEPKc12cmd_arg_kindS1_S1_S1_(ptr noundef nonnull align 8 dereferenceable(8) %5, ptr noundef @.str.987, i32 noundef 0, ptr noundef @.str.988, ptr noundef @.str.140, ptr noundef @.str.33)
  %6 = load ptr, ptr %2, align 8, !tbaa !7
  call void @_ZN12param_descrs6insertEPKc12cmd_arg_kindS1_S1_S1_(ptr noundef nonnull align 8 dereferenceable(8) %6, ptr noundef @.str.989, i32 noundef 1, ptr noundef @.str.990, ptr noundef @.str.73, ptr noundef @.str.33)
  %7 = load ptr, ptr %2, align 8, !tbaa !7
  call void @_ZN12param_descrs6insertEPKc12cmd_arg_kindS1_S1_S1_(ptr noundef nonnull align 8 dereferenceable(8) %7, ptr noundef @.str.991, i32 noundef 0, ptr noundef @.str.992, ptr noundef @.str.993, ptr noundef @.str.33)
  %8 = load ptr, ptr %2, align 8, !tbaa !7
  call void @_ZN12param_descrs6insertEPKc12cmd_arg_kindS1_S1_S1_(ptr noundef nonnull align 8 dereferenceable(8) %8, ptr noundef @.str.994, i32 noundef 1, ptr noundef @.str.995, ptr noundef @.str.82, ptr noundef @.str.33)
  ret void
}

; Function Attrs: inlinehint mustprogress uwtable
define internal noundef ptr @"_ZZ24gparams_register_modulesvENK4$_27clEv"(ptr noundef nonnull align 1 dereferenceable(1) %0) #8 align 2 {
  %2 = alloca ptr, align 8
  %3 = alloca ptr, align 8
  store ptr %0, ptr %2, align 8, !tbaa !3
  call void @llvm.lifetime.start.p0(i64 8, ptr %3) #3
  %4 = call noalias noundef ptr @_ZN6memory8allocateEm(i64 noundef 8)
  call void @_ZN12param_descrsC1Ev(ptr noundef nonnull align 8 dereferenceable(8) %4)
  store ptr %4, ptr %3, align 8, !tbaa !7
  %5 = load ptr, ptr %3, align 8, !tbaa !7
  call void @_ZN23sat_asymm_branch_params20collect_param_descrsER12param_descrs(ptr noundef nonnull align 8 dereferenceable(8) %5)
  %6 = load ptr, ptr %3, align 8, !tbaa !7
  call void @llvm.lifetime.end.p0(i64 8, ptr %3) #3
  ret ptr %6
}

; Function Attrs: inlinehint mustprogress uwtable
define internal noundef ptr @"_ZZ24gparams_register_modulesvEN4$_278__invokeEv"() #8 align 2 {
  %1 = alloca %class.anon.52, align 1
  %2 = call noundef ptr @"_ZZ24gparams_register_modulesvENK4$_27clEv"(ptr noundef nonnull align 1 dereferenceable(1) %1)
  ret ptr %2
}