; Function Attrs: inlinehint mustprogress uwtable
define internal noundef ptr @"_ZZ24gparams_register_modulesvEN4$_278__invokeEv"() #5 align 2 {
  %1 = tail call noalias noundef ptr @_ZN6memory8allocateEm(i64 noundef 8)
  tail call void @_ZN12param_descrsC1Ev(ptr noundef nonnull align 8 dereferenceable(8) %1)
  tail call void @_ZN12param_descrs6insertEPKc12cmd_arg_kindS1_S1_S1_(ptr noundef nonnull align 8 dereferenceable(8) %1, ptr noundef nonnull @.str.983, i32 noundef 1, ptr noundef nonnull @.str.984, ptr noundef nonnull @.str.73, ptr noundef nonnull @.str.33)
  tail call void @_ZN12param_descrs6insertEPKc12cmd_arg_kindS1_S1_S1_(ptr noundef nonnull align 8 dereferenceable(8) %1, ptr noundef nonnull @.str.985, i32 noundef 0, ptr noundef nonnull @.str.986, ptr noundef nonnull @.str.412, ptr noundef nonnull @.str.33)
  tail call void @_ZN12param_descrs6insertEPKc12cmd_arg_kindS1_S1_S1_(ptr noundef nonnull align 8 dereferenceable(8) %1, ptr noundef nonnull @.str.987, i32 noundef 0, ptr noundef nonnull @.str.988, ptr noundef nonnull @.str.140, ptr noundef nonnull @.str.33)
  tail call void @_ZN12param_descrs6insertEPKc12cmd_arg_kindS1_S1_S1_(ptr noundef nonnull align 8 dereferenceable(8) %1, ptr noundef nonnull @.str.989, i32 noundef 1, ptr noundef nonnull @.str.990, ptr noundef nonnull @.str.73, ptr noundef nonnull @.str.33)
  tail call void @_ZN12param_descrs6insertEPKc12cmd_arg_kindS1_S1_S1_(ptr noundef nonnull align 8 dereferenceable(8) %1, ptr noundef nonnull @.str.991, i32 noundef 0, ptr noundef nonnull @.str.992, ptr noundef nonnull @.str.993, ptr noundef nonnull @.str.33)
  tail call void @_ZN12param_descrs6insertEPKc12cmd_arg_kindS1_S1_S1_(ptr noundef nonnull align 8 dereferenceable(8) %1, ptr noundef nonnull @.str.994, i32 noundef 1, ptr noundef nonnull @.str.995, ptr noundef nonnull @.str.82, ptr noundef nonnull @.str.33)
  ret ptr %1
}